Archive member included to satisfy reference by file (symbol)

/home/janne/ebsdk/ebfw/obj/lx164//lib.a(setjmp.o)
                              /home/janne/ebsdk/ebfw/obj/lx164//cstartup.o (setjmp)
/home/janne/ebsdk/ebfw/obj/lx164//lib.a(initdata.o)
                              /home/janne/ebsdk/ebfw/obj/lx164//cstartup.o (initdata)
/home/janne/ebsdk/ebfw/obj/lx164//lib.a(printf.o)
                              /home/janne/ebsdk/ebfw/obj/lx164/hello.o (printf)
/home/janne/ebsdk/ebfw/obj/lx164//lib.a(string.o)
                              /home/janne/ebsdk/ebfw/obj/lx164//lib.a(printf.o) (strlen)
/home/janne/ebsdk/ebfw/obj/lx164//lib.a(ctype.o)
                              /home/janne/ebsdk/ebfw/obj/lx164//lib.a(printf.o) (ctypeArray)
/home/janne/ebsdk/ebfw/obj/lx164//lib.a(ftype.o)
                              /home/janne/ebsdk/ebfw/obj/lx164//lib.a(printf.o) (ftype)
/home/janne/ebsdk/ebfw/obj/lx164//lib.a(callback.o)
                              /home/janne/ebsdk/ebfw/obj/lx164//lib.a(initdata.o) (PutChar)
/home/janne/ebsdk/ebfw/obj/lx164//lib.a(asmstuff.o)
                              /home/janne/ebsdk/ebfw/obj/lx164//lib.a(initdata.o) (cServe)
/home/janne/ebsdk/ebfw/obj/lx164//lib.a(time.o)
                              /home/janne/ebsdk/ebfw/obj/lx164//lib.a(printf.o) (usleep)
/home/janne/ebsdk/ebfw/obj/lx164//lib.a(fileio.o)
                              /home/janne/ebsdk/ebfw/obj/lx164//lib.a(printf.o) (fputc)
/home/janne/ebsdk/ebfw/obj/lx164//lib.a(fatdrv.o)
                              /home/janne/ebsdk/ebfw/obj/lx164//lib.a(fileio.o) (AllocateFloppyDrive)
/home/janne/ebsdk/ebfw/obj/lx164//lib.a(floppy.o)
                              /home/janne/ebsdk/ebfw/obj/lx164//lib.a(fatdrv.o) (SpinDownFloppyDrive)
/home/janne/ebsdk/ebfw/obj/lx164//lib.a(lx164_io.o)
                              /home/janne/ebsdk/ebfw/obj/lx164//lib.a(floppy.o) (outportb)
/home/janne/ebsdk/ebfw/obj/lx164//lib.a(smc.o)
                              /home/janne/ebsdk/ebfw/obj/lx164//lib.a(lx164_io.o) (SMCInit)
/usr/alpha-linux-gnu/lib/libc.a(strchr.o)
                              /home/janne/ebsdk/ebfw/obj/lx164//lib.a(printf.o) (strchr)
/usr/alpha-linux-gnu/lib/libc.a(strncat.o)
                              /home/janne/ebsdk/ebfw/obj/lx164//lib.a(fatdrv.o) (strncat)
/usr/alpha-linux-gnu/lib/libc.a(strncmp.o)
                              /home/janne/ebsdk/ebfw/obj/lx164//lib.a(fatdrv.o) (strncmp)
/usr/alpha-linux-gnu/lib/libc.a(strncpy.o)
                              /home/janne/ebsdk/ebfw/obj/lx164//lib.a(fatdrv.o) (strncpy)
/usr/alpha-linux-gnu/lib/libc.a(strrchr.o)
                              /home/janne/ebsdk/ebfw/obj/lx164//lib.a(fatdrv.o) (strrchr)
/usr/alpha-linux-gnu/lib/libc.a(stxncpy.o)
                              /usr/alpha-linux-gnu/lib/libc.a(strncat.o) (__stxncpy)
/usr/alpha-linux-gnu/lib/libc.a(divlu.o)
                              /home/janne/ebsdk/ebfw/obj/lx164//lib.a(fatdrv.o) (__divlu)
/usr/alpha-linux-gnu/lib/libc.a(divq.o)
                              /home/janne/ebsdk/ebfw/obj/lx164//lib.a(printf.o) (__divq)
/usr/alpha-linux-gnu/lib/libc.a(divqu.o)
                              /home/janne/ebsdk/ebfw/obj/lx164//lib.a(initdata.o) (__divqu)
/usr/alpha-linux-gnu/lib/libc.a(reml.o)
                              /home/janne/ebsdk/ebfw/obj/lx164//lib.a(fatdrv.o) (__reml)
/usr/alpha-linux-gnu/lib/libc.a(remlu.o)
                              /home/janne/ebsdk/ebfw/obj/lx164//lib.a(fatdrv.o) (__remlu)
/usr/alpha-linux-gnu/lib/libc.a(remq.o)
                              /home/janne/ebsdk/ebfw/obj/lx164//lib.a(printf.o) (__remq)
/usr/alpha-linux-gnu/lib/libc.a(remqu.o)
                              /home/janne/ebsdk/ebfw/obj/lx164//lib.a(printf.o) (__remqu)

Discarded input sections

 .note.GNU-stack
                0x0000000000000000        0x0 /home/janne/ebsdk/ebfw/obj/lx164/hello.o
 .note.GNU-stack
                0x0000000000000000        0x0 /home/janne/ebsdk/ebfw/obj/lx164//lib.a(initdata.o)
 .note.GNU-stack
                0x0000000000000000        0x0 /home/janne/ebsdk/ebfw/obj/lx164//lib.a(printf.o)
 .note.GNU-stack
                0x0000000000000000        0x0 /home/janne/ebsdk/ebfw/obj/lx164//lib.a(string.o)
 .note.GNU-stack
                0x0000000000000000        0x0 /home/janne/ebsdk/ebfw/obj/lx164//lib.a(ctype.o)
 .note.GNU-stack
                0x0000000000000000        0x0 /home/janne/ebsdk/ebfw/obj/lx164//lib.a(ftype.o)
 .note.GNU-stack
                0x0000000000000000        0x0 /home/janne/ebsdk/ebfw/obj/lx164//lib.a(callback.o)
 .note.GNU-stack
                0x0000000000000000        0x0 /home/janne/ebsdk/ebfw/obj/lx164//lib.a(time.o)
 .note.GNU-stack
                0x0000000000000000        0x0 /home/janne/ebsdk/ebfw/obj/lx164//lib.a(fileio.o)
 .note.GNU-stack
                0x0000000000000000        0x0 /home/janne/ebsdk/ebfw/obj/lx164//lib.a(fatdrv.o)
 .note.GNU-stack
                0x0000000000000000        0x0 /home/janne/ebsdk/ebfw/obj/lx164//lib.a(floppy.o)
 .note.GNU-stack
                0x0000000000000000        0x0 /home/janne/ebsdk/ebfw/obj/lx164//lib.a(lx164_io.o)
 .note.GNU-stack
                0x0000000000000000        0x0 /home/janne/ebsdk/ebfw/obj/lx164//lib.a(smc.o)
 .note.GNU-stack
                0x0000000000000000        0x0 /usr/alpha-linux-gnu/lib/libc.a(strchr.o)
 .note.GNU-stack
                0x0000000000000000        0x0 /usr/alpha-linux-gnu/lib/libc.a(strncat.o)
 .note.GNU-stack
                0x0000000000000000        0x0 /usr/alpha-linux-gnu/lib/libc.a(strncmp.o)
 .note.GNU-stack
                0x0000000000000000        0x0 /usr/alpha-linux-gnu/lib/libc.a(strncpy.o)
 .note.GNU-stack
                0x0000000000000000        0x0 /usr/alpha-linux-gnu/lib/libc.a(strrchr.o)
 .note.GNU-stack
                0x0000000000000000        0x0 /usr/alpha-linux-gnu/lib/libc.a(stxncpy.o)
 .note.GNU-stack
                0x0000000000000000        0x0 /usr/alpha-linux-gnu/lib/libc.a(divlu.o)
 .note.GNU-stack
                0x0000000000000000        0x0 /usr/alpha-linux-gnu/lib/libc.a(divq.o)
 .note.GNU-stack
                0x0000000000000000        0x0 /usr/alpha-linux-gnu/lib/libc.a(divqu.o)
 .note.GNU-stack
                0x0000000000000000        0x0 /usr/alpha-linux-gnu/lib/libc.a(reml.o)
 .note.GNU-stack
                0x0000000000000000        0x0 /usr/alpha-linux-gnu/lib/libc.a(remlu.o)
 .note.GNU-stack
                0x0000000000000000        0x0 /usr/alpha-linux-gnu/lib/libc.a(remq.o)
 .note.GNU-stack
                0x0000000000000000        0x0 /usr/alpha-linux-gnu/lib/libc.a(remqu.o)

Memory Configuration

Name             Origin             Length             Attributes
*default*        0x0000000000000000 0xffffffffffffffff

Linker script and memory map

LOAD /home/janne/ebsdk/ebfw/obj/lx164//cstartup.o
                [!provide]                        PROVIDE (__executable_start = SEGMENT_START ("text-segment", 0x300000))
                0x0000000000300000                . = SEGMENT_START ("text-segment", 0x300000)

.init           0x0000000000300000       0x7c
 *(SORT_NONE(.init))
 .init          0x0000000000300000       0x7c /home/janne/ebsdk/ebfw/obj/lx164//cstartup.o
                0x0000000000300000                __start

.text           0x0000000000300080     0x86c0
 *(.text.startup .text.startup.*)
 .text.startup  0x0000000000300080       0x38 /home/janne/ebsdk/ebfw/obj/lx164/hello.o
                0x0000000000300080                main
 *(.text)
 .text          0x00000000003000b8        0x0 /home/janne/ebsdk/ebfw/obj/lx164//cstartup.o
 .text          0x00000000003000b8        0x0 /home/janne/ebsdk/ebfw/obj/lx164/hello.o
 *fill*         0x00000000003000b8        0x8 0000fe2f1f04ff47
 .text          0x00000000003000c0       0xb0 /home/janne/ebsdk/ebfw/obj/lx164//lib.a(setjmp.o)
                0x00000000003000c0                setjmp
                0x0000000000300110                longjmp
 .text          0x0000000000300170      0x38c /home/janne/ebsdk/ebfw/obj/lx164//lib.a(initdata.o)
                0x0000000000300170                initdata
                0x000000000030035c                DumpSysData
 .text          0x00000000003004fc     0x118c /home/janne/ebsdk/ebfw/obj/lx164//lib.a(printf.o)
                0x000000000030147c                printf
                0x000000000030154c                sprintf
                0x00000000003015dc                vprintf
                0x0000000000301608                fprintf
 .text          0x0000000000301688      0x114 /home/janne/ebsdk/ebfw/obj/lx164//lib.a(string.o)
                0x0000000000301688                memcpy
                0x00000000003016b4                memcmp
                0x0000000000301704                memset
                0x0000000000301728                memchr
                0x000000000030175c                strlen
                0x0000000000301778                bzero
 .text          0x000000000030179c      0x2a4 /home/janne/ebsdk/ebfw/obj/lx164//lib.a(ctype.o)
                0x000000000030179c                isalnum
                0x00000000003017cc                isalpha
                0x0000000000301800                isascii
                0x0000000000301834                iscntrl
                0x0000000000301868                isdigit
                0x000000000030189c                isgraph
                0x00000000003018d0                islower
                0x0000000000301904                isprint
                0x0000000000301938                ispunct
                0x000000000030196c                isspace
                0x00000000003019a0                isupper
                0x00000000003019d4                isxdigit
                0x0000000000301a08                tolower
                0x0000000000301a24                toupper
 .text          0x0000000000301a40      0x26c /home/janne/ebsdk/ebfw/obj/lx164//lib.a(ftype.o)
                0x0000000000301a40                isfinite
                0x0000000000301a64                isfinitef
                0x0000000000301a84                isnan
                0x0000000000301ac8                isnanf
                0x0000000000301b00                ftype
                0x0000000000301bec                ftypef
 .text          0x0000000000301cac      0x228 /home/janne/ebsdk/ebfw/obj/lx164//lib.a(callback.o)
                0x0000000000301cac                PutChar
                0x0000000000301cdc                GetChar
                0x0000000000301d3c                UngetChar
                0x0000000000301d74                CharAv
                0x0000000000301db4                time
                0x0000000000301de4                malloc_summary
                0x0000000000301e14                malloc
                0x0000000000301e44                free
                0x0000000000301e74                realloc
                0x0000000000301ea4                ladbx_poll
 *fill*         0x0000000000301ed4        0xc 0000fe2f1f04ff47
 .text          0x0000000000301ee0      0x330 /home/janne/ebsdk/ebfw/obj/lx164//lib.a(asmstuff.o)
                0x0000000000301ee0                __main
                0x0000000000301ef0                mb
                0x0000000000301f00                imb
                0x0000000000301f10                rpcc
                0x0000000000301f20                getsp
                0x0000000000301f30                cServe
                0x0000000000301f40                wrfen
                0x0000000000301f50                swppal
                0x0000000000301f60                halt
                0x0000000000301f70                wait_cycles
                0x0000000000301fa0                swpipl
                0x0000000000301fb0                wrmces
                0x0000000000301fc0                rdmces
                0x0000000000301fd0                CleanBCache
                0x0000000000301ff0                UnalignedReadB
                0x0000000000302000                UnalignedReadW
                0x0000000000302020                UnalignedReadL
                0x0000000000302040                UnalignedReadQ
                0x0000000000302060                UnalignedWriteB
                0x0000000000302090                UnalignedWriteW
                0x00000000003020d0                UnalignedWriteL
                0x0000000000302100                UnalignedWriteQ
                0x0000000000302130                UnalignedReadFloat
                0x0000000000302160                UnalignedReadDouble
                0x0000000000302190                UnalignedWriteFloat
                0x00000000003021d0                UnalignedWriteDouble
 .text          0x0000000000302210      0x208 /home/janne/ebsdk/ebfw/obj/lx164//lib.a(time.o)
                0x0000000000302210                gettime
                0x0000000000302240                localtime
                0x000000000030231c                usleep
                0x0000000000302358                msleep
                0x00000000003023bc                sleep
 .text          0x0000000000302418      0x7a4 /home/janne/ebsdk/ebfw/obj/lx164//lib.a(fileio.o)
                0x00000000003024dc                fgetc
                0x000000000030256c                fungetc
                0x00000000003025ac                fread
                0x000000000030261c                fputc
                0x00000000003026c8                fwrite
                0x0000000000302738                fclose
                0x000000000030278c                feof
                0x0000000000302794                perror
                0x00000000003028c4                fdir
                0x0000000000302918                fload
                0x0000000000302960                fdr
                0x00000000003029bc                MapLogicalToPhysicalDevice
                0x0000000000302a28                fopen
                0x0000000000302b28                fcd
 .text          0x0000000000302bbc     0x2a68 /home/janne/ebsdk/ebfw/obj/lx164//lib.a(fatdrv.o)
                0x0000000000304458                AllocateFloppyDrive
                0x0000000000304524                Shutdown
                0x0000000000305300                ReadWriteRawSector
                0x00000000003053f8                ReadWriteSectors
 .text          0x0000000000305624      0xb60 /home/janne/ebsdk/ebfw/obj/lx164//lib.a(floppy.o)
                0x00000000003058b0                SpinDownFloppyDrive
                0x00000000003058f4                InitializeFloppyDrive
                0x0000000000305ecc                ReadLogicalSector
                0x0000000000305f60                WriteLogicalSector
                0x0000000000305ff4                init_pic
 .text          0x0000000000306184      0xcbc /home/janne/ebsdk/ebfw/obj/lx164//lib.a(lx164_io.o)
                0x0000000000306184                out_ioc_csr
                0x00000000003061c4                in_ioc_csr
                0x00000000003061e0                out_ioc_pci
                0x0000000000306220                outportb
                0x0000000000306278                outportw
                0x00000000003062d4                outportl
                0x0000000000306328                outcfgb
                0x000000000030640c                outcfgw
                0x00000000003064f4                outcfgl
                0x00000000003065d0                inportb
                0x0000000000306604                inportw
                0x000000000030663c                inportl
                0x0000000000306668                incfgb
                0x0000000000306730                incfgw
                0x00000000003067fc                incfgl
                0x00000000003068bc                outmemb
                0x000000000030691c                outmemw
                0x000000000030697c                outmeml
                0x00000000003069d0                indmemb
                0x00000000003069f8                indmemw
                0x0000000000306a20                indmeml
                0x0000000000306a3c                outdmemb
                0x0000000000306a94                outdmemw
                0x0000000000306b2c                outdmeml
                0x0000000000306b70                inmemb
                0x0000000000306ba4                inmemw
                0x0000000000306bdc                inmeml
                0x0000000000306c08                SetHAE
                0x0000000000306c58                inIack
                0x0000000000306c68                PCIBusInit
                0x0000000000306cfc                ISABusInit
                0x0000000000306dd0                outLed
                0x0000000000306dec                IOPCIClearNODEV
 .text          0x0000000000306e40      0x75c /home/janne/ebsdk/ebfw/obj/lx164//lib.a(smc.o)
                0x0000000000306f68                SMCEnablePARP
                0x0000000000307088                SMCInit
 *fill*         0x000000000030759c        0x4 0000fe2f1f04ff47
 .text          0x00000000003075a0       0xb0 /usr/alpha-linux-gnu/lib/libc.a(strchr.o)
                0x00000000003075a0                index
                0x00000000003075a0                strchr
 .text          0x0000000000307650       0xb0 /usr/alpha-linux-gnu/lib/libc.a(strncat.o)
                0x0000000000307650                strncat
 .text          0x0000000000307700      0x300 /usr/alpha-linux-gnu/lib/libc.a(strncmp.o)
                0x0000000000307700                strncmp
 .text          0x0000000000307a00       0xa0 /usr/alpha-linux-gnu/lib/libc.a(strncpy.o)
                0x0000000000307a00                strncpy
 .text          0x0000000000307aa0       0xd0 /usr/alpha-linux-gnu/lib/libc.a(strrchr.o)
                0x0000000000307aa0                strrchr
                0x0000000000307aa0                rindex
 .text          0x0000000000307b70      0x278 /usr/alpha-linux-gnu/lib/libc.a(stxncpy.o)
                0x0000000000307bf0                __stxncpy
 *fill*         0x0000000000307de8        0x8 0000fe2f1f04ff47
 .text          0x0000000000307df0       0x90 /usr/alpha-linux-gnu/lib/libc.a(divlu.o)
                0x0000000000307df0                __divlu
 .text          0x0000000000307e80      0x200 /usr/alpha-linux-gnu/lib/libc.a(divq.o)
                0x0000000000307e80                __divq
 .text          0x0000000000308080      0x1b0 /usr/alpha-linux-gnu/lib/libc.a(divqu.o)
                0x0000000000308080                __divqu
 .text          0x0000000000308230       0x90 /usr/alpha-linux-gnu/lib/libc.a(reml.o)
                0x0000000000308230                __reml
 .text          0x00000000003082c0       0x90 /usr/alpha-linux-gnu/lib/libc.a(remlu.o)
                0x00000000003082c0                __remlu
 .text          0x0000000000308350      0x1f0 /usr/alpha-linux-gnu/lib/libc.a(remq.o)
                0x0000000000308350                __remq
 .text          0x0000000000308540      0x200 /usr/alpha-linux-gnu/lib/libc.a(remqu.o)
                0x0000000000308540                __remqu

.fini           0x0000000000308740        0xc
 *(SORT_NONE(.fini))
 .fini          0x0000000000308740        0xc /home/janne/ebsdk/ebfw/obj/lx164//cstartup.o
                0x0000000000308740                _exit
                [!provide]                        PROVIDE (__etext = .)
                [!provide]                        PROVIDE (_etext = .)
                [!provide]                        PROVIDE (etext = .)

.rodata         0x0000000000308750      0x820
 *(.rodata .rodata.*)
 .rodata.str1.1
                0x0000000000308750      0x622 /home/janne/ebsdk/ebfw/obj/lx164/hello.o
                                          0xe (size before relaxing)
 .rodata.str1.1
                0x0000000000308d72       0xc8 /home/janne/ebsdk/ebfw/obj/lx164//lib.a(initdata.o)
 .rodata.str1.1
                0x0000000000308d72       0x73 /home/janne/ebsdk/ebfw/obj/lx164//lib.a(printf.o)
 *fill*         0x0000000000308d72        0x2 
 .rodata        0x0000000000308d74       0xac /home/janne/ebsdk/ebfw/obj/lx164//lib.a(printf.o)
 .rodata.cst4   0x0000000000308e20       0x10 /home/janne/ebsdk/ebfw/obj/lx164//lib.a(printf.o)
 .rodata        0x0000000000308e30      0x100 /home/janne/ebsdk/ebfw/obj/lx164//lib.a(ctype.o)
                0x0000000000308e30                ctypeArray
 .rodata.str1.1
                0x0000000000308f30       0xd9 /home/janne/ebsdk/ebfw/obj/lx164//lib.a(fileio.o)
 .rodata        0x0000000000308f30       0x28 /home/janne/ebsdk/ebfw/obj/lx164//lib.a(fileio.o)
 .rodata.str1.1
                0x0000000000308f58      0x349 /home/janne/ebsdk/ebfw/obj/lx164//lib.a(fatdrv.o)
 .rodata.str1.1
                0x0000000000308f58       0xcb /home/janne/ebsdk/ebfw/obj/lx164//lib.a(floppy.o)
 .rodata.cst8   0x0000000000308f58       0x18 /home/janne/ebsdk/ebfw/obj/lx164//lib.a(lx164_io.o)

.eh_frame       0x0000000000308f70     0x1644
 *(.eh_frame)
 .eh_frame      0x0000000000308f70       0x30 /home/janne/ebsdk/ebfw/obj/lx164/hello.o
 .eh_frame      0x0000000000308fa0       0x28 /home/janne/ebsdk/ebfw/obj/lx164//lib.a(setjmp.o)
                                         0x40 (size before relaxing)
 .eh_frame      0x0000000000308fc8       0x48 /home/janne/ebsdk/ebfw/obj/lx164//lib.a(initdata.o)
                                         0x58 (size before relaxing)
 .eh_frame      0x0000000000309010      0x238 /home/janne/ebsdk/ebfw/obj/lx164//lib.a(printf.o)
                                        0x248 (size before relaxing)
 .eh_frame      0x0000000000309248       0x78 /home/janne/ebsdk/ebfw/obj/lx164//lib.a(string.o)
                                         0x90 (size before relaxing)
 .eh_frame      0x00000000003092c0      0x118 /home/janne/ebsdk/ebfw/obj/lx164//lib.a(ctype.o)
                                        0x130 (size before relaxing)
 .eh_frame      0x00000000003093d8       0x98 /home/janne/ebsdk/ebfw/obj/lx164//lib.a(ftype.o)
                                         0xb0 (size before relaxing)
 .eh_frame      0x0000000000309470      0x118 /home/janne/ebsdk/ebfw/obj/lx164//lib.a(callback.o)
                                        0x128 (size before relaxing)
 .eh_frame      0x0000000000309588       0xa0 /home/janne/ebsdk/ebfw/obj/lx164//lib.a(time.o)
                                         0xb8 (size before relaxing)
 .eh_frame      0x0000000000309628      0x1e8 /home/janne/ebsdk/ebfw/obj/lx164//lib.a(fileio.o)
                                        0x1f8 (size before relaxing)
 .eh_frame      0x0000000000309810      0x4b0 /home/janne/ebsdk/ebfw/obj/lx164//lib.a(fatdrv.o)
                                        0x4c0 (size before relaxing)
 .eh_frame      0x0000000000309cc0      0x1a8 /home/janne/ebsdk/ebfw/obj/lx164//lib.a(floppy.o)
                                        0x1b8 (size before relaxing)
 .eh_frame      0x0000000000309e68      0x3c0 /home/janne/ebsdk/ebfw/obj/lx164//lib.a(lx164_io.o)
                                        0x3d8 (size before relaxing)
 .eh_frame      0x000000000030a228       0x98 /home/janne/ebsdk/ebfw/obj/lx164//lib.a(smc.o)
                                         0xa8 (size before relaxing)
 .eh_frame      0x000000000030a2c0       0x18 /usr/alpha-linux-gnu/lib/libc.a(strchr.o)
                                         0x28 (size before relaxing)
 .eh_frame      0x000000000030a2d8       0x18 /usr/alpha-linux-gnu/lib/libc.a(strncat.o)
                                         0x28 (size before relaxing)
 .eh_frame      0x000000000030a2f0       0x18 /usr/alpha-linux-gnu/lib/libc.a(strncmp.o)
                                         0x28 (size before relaxing)
 .eh_frame      0x000000000030a308       0x18 /usr/alpha-linux-gnu/lib/libc.a(strncpy.o)
                                         0x28 (size before relaxing)
 .eh_frame      0x000000000030a320       0x18 /usr/alpha-linux-gnu/lib/libc.a(strrchr.o)
                                         0x28 (size before relaxing)
 .eh_frame      0x000000000030a338       0x28 /usr/alpha-linux-gnu/lib/libc.a(stxncpy.o)
 .eh_frame      0x000000000030a360       0x40 /usr/alpha-linux-gnu/lib/libc.a(divlu.o)
                                         0x50 (size before relaxing)
 .eh_frame      0x000000000030a3a0       0x60 /usr/alpha-linux-gnu/lib/libc.a(divq.o)
                                         0x70 (size before relaxing)
 .eh_frame      0x000000000030a400       0x68 /usr/alpha-linux-gnu/lib/libc.a(divqu.o)
                                         0x78 (size before relaxing)
 .eh_frame      0x000000000030a468       0x40 /usr/alpha-linux-gnu/lib/libc.a(reml.o)
                                         0x50 (size before relaxing)
 .eh_frame      0x000000000030a4a8       0x40 /usr/alpha-linux-gnu/lib/libc.a(remlu.o)
                                         0x50 (size before relaxing)
 .eh_frame      0x000000000030a4e8       0x60 /usr/alpha-linux-gnu/lib/libc.a(remq.o)
                                         0x70 (size before relaxing)
 .eh_frame      0x000000000030a548       0x6c /usr/alpha-linux-gnu/lib/libc.a(remqu.o)
                                         0x80 (size before relaxing)

.eh_frame
 *(.eh_frame)
 *(.eh_frame.*)

.data           0x000000000030a5b8      0x298
 *(.data)
 .data          0x000000000030a5b8       0x3c /home/janne/ebsdk/ebfw/obj/lx164//cstartup.o
 .data          0x000000000030a5f4        0x0 /home/janne/ebsdk/ebfw/obj/lx164/hello.o
 .data          0x000000000030a5f4       0x3a /home/janne/ebsdk/ebfw/obj/lx164//lib.a(setjmp.o)
 .data          0x000000000030a62e        0x0 /home/janne/ebsdk/ebfw/obj/lx164//lib.a(initdata.o)
 *fill*         0x000000000030a62e        0x2 
 .data          0x000000000030a630       0xc8 /home/janne/ebsdk/ebfw/obj/lx164//lib.a(printf.o)
 .data          0x000000000030a6f8        0x0 /home/janne/ebsdk/ebfw/obj/lx164//lib.a(string.o)
 .data          0x000000000030a6f8        0x0 /home/janne/ebsdk/ebfw/obj/lx164//lib.a(ctype.o)
 .data          0x000000000030a6f8        0x0 /home/janne/ebsdk/ebfw/obj/lx164//lib.a(ftype.o)
 .data          0x000000000030a6f8        0x0 /home/janne/ebsdk/ebfw/obj/lx164//lib.a(callback.o)
 .data          0x000000000030a6f8       0x3c /home/janne/ebsdk/ebfw/obj/lx164//lib.a(asmstuff.o)
 .data          0x000000000030a734        0x0 /home/janne/ebsdk/ebfw/obj/lx164//lib.a(time.o)
 .data          0x000000000030a734        0x0 /home/janne/ebsdk/ebfw/obj/lx164//lib.a(fileio.o)
 *fill*         0x000000000030a734        0x4 
 .data          0x000000000030a738       0x78 /home/janne/ebsdk/ebfw/obj/lx164//lib.a(fatdrv.o)
                0x000000000030a738                Error3Strings
 .data          0x000000000030a7b0       0xa0 /home/janne/ebsdk/ebfw/obj/lx164//lib.a(floppy.o)
                0x000000000030a7b0                FloppyDriveTypes
                0x000000000030a7ec                FloppyDiskTypes
                0x000000000030a820                Error4Strings
 .data          0x000000000030a850        0x0 /home/janne/ebsdk/ebfw/obj/lx164//lib.a(lx164_io.o)
 .data          0x000000000030a850        0x0 /home/janne/ebsdk/ebfw/obj/lx164//lib.a(smc.o)
 .data          0x000000000030a850        0x0 /usr/alpha-linux-gnu/lib/libc.a(strchr.o)
 .data          0x000000000030a850        0x0 /usr/alpha-linux-gnu/lib/libc.a(strncat.o)
 .data          0x000000000030a850        0x0 /usr/alpha-linux-gnu/lib/libc.a(strncmp.o)
 .data          0x000000000030a850        0x0 /usr/alpha-linux-gnu/lib/libc.a(strncpy.o)
 .data          0x000000000030a850        0x0 /usr/alpha-linux-gnu/lib/libc.a(strrchr.o)
 .data          0x000000000030a850        0x0 /usr/alpha-linux-gnu/lib/libc.a(stxncpy.o)
 .data          0x000000000030a850        0x0 /usr/alpha-linux-gnu/lib/libc.a(divlu.o)
 .data          0x000000000030a850        0x0 /usr/alpha-linux-gnu/lib/libc.a(divq.o)
 .data          0x000000000030a850        0x0 /usr/alpha-linux-gnu/lib/libc.a(divqu.o)
 .data          0x000000000030a850        0x0 /usr/alpha-linux-gnu/lib/libc.a(reml.o)
 .data          0x000000000030a850        0x0 /usr/alpha-linux-gnu/lib/libc.a(remlu.o)
 .data          0x000000000030a850        0x0 /usr/alpha-linux-gnu/lib/libc.a(remq.o)
 .data          0x000000000030a850        0x0 /usr/alpha-linux-gnu/lib/libc.a(remqu.o)

.got            0x000000000030a850      0x338
 *(.got.plt)
 *(.igot.plt)
 *(.got)
 .got           0x000000000030a850      0x338 /home/janne/ebsdk/ebfw/obj/lx164//cstartup.o
 .got           0x000000000030ab88        0x0 /home/janne/ebsdk/ebfw/obj/lx164/hello.o
 .got           0x000000000030ab88        0x0 /home/janne/ebsdk/ebfw/obj/lx164//lib.a(initdata.o)
 .got           0x000000000030ab88        0x0 /home/janne/ebsdk/ebfw/obj/lx164//lib.a(printf.o)
 .got           0x000000000030ab88        0x0 /home/janne/ebsdk/ebfw/obj/lx164//lib.a(ctype.o)
 .got           0x000000000030ab88        0x0 /home/janne/ebsdk/ebfw/obj/lx164//lib.a(callback.o)
 .got           0x000000000030ab88        0x0 /home/janne/ebsdk/ebfw/obj/lx164//lib.a(time.o)
 .got           0x000000000030ab88        0x0 /home/janne/ebsdk/ebfw/obj/lx164//lib.a(fileio.o)
 .got           0x000000000030ab88        0x0 /home/janne/ebsdk/ebfw/obj/lx164//lib.a(fatdrv.o)
 .got           0x000000000030ab88        0x0 /home/janne/ebsdk/ebfw/obj/lx164//lib.a(floppy.o)
 .got           0x000000000030ab88        0x0 /home/janne/ebsdk/ebfw/obj/lx164//lib.a(lx164_io.o)
 .got           0x000000000030ab88        0x0 /home/janne/ebsdk/ebfw/obj/lx164//lib.a(smc.o)
 .got           0x000000000030ab88        0x0 /usr/alpha-linux-gnu/lib/libc.a(strncat.o)
 .got           0x000000000030ab88        0x0 /usr/alpha-linux-gnu/lib/libc.a(strncpy.o)
 *(.igot)

.sdata          0x000000000030ab88       0x30
 *(.sdata)
 .sdata         0x000000000030ab88       0x20 /home/janne/ebsdk/ebfw/obj/lx164//lib.a(initdata.o)
                0x000000000030ab88                CPU_cycles_per_usecs
                0x000000000030ab90                UserCharAv
                0x000000000030ab98                UserGetChar
                0x000000000030aba0                UserPutChar
 .sdata         0x000000000030aba8        0x8 /home/janne/ebsdk/ebfw/obj/lx164//lib.a(printf.o)
                0x000000000030aba8                ten_table
 .sdata         0x000000000030abb0        0x3 /home/janne/ebsdk/ebfw/obj/lx164//lib.a(fileio.o)
 *fill*         0x000000000030abb3        0x1 
 .sdata         0x000000000030abb4        0x4 /home/janne/ebsdk/ebfw/obj/lx164//lib.a(lx164_io.o)
                0x000000000030abb4                rtcBase
                0x000000000030abb8                _edata = .
                [!provide]                        PROVIDE (edata = .)
                0x000000000030abb8                . = ALIGN (ALIGNOF (NEXT_SECTION))
                0x000000000030abb8                __bss_start = .

.sbss           0x000000000030abb8       0xa8
 *(.sbss)
 .sbss          0x000000000030abb8       0x40 /home/janne/ebsdk/ebfw/obj/lx164//lib.a(initdata.o)
                0x000000000030abb8                PalImpureBase
                0x000000000030abc0                Userladbx_poll
                0x000000000030abc8                Userrealloc
                0x000000000030abd0                Userfree
                0x000000000030abd8                Usermalloc
                0x000000000030abe0                Usermalloc_summary
                0x000000000030abe8                Usertime
                0x000000000030abf0                CBarray
 .sbss          0x000000000030abf8       0x20 /home/janne/ebsdk/ebfw/obj/lx164//lib.a(printf.o)
                0x000000000030ac00                print_lock
 .sbss          0x000000000030ac18        0x8 /home/janne/ebsdk/ebfw/obj/lx164//lib.a(callback.o)
                0x000000000030ac18                SavedChars
                0x000000000030ac1c                CharsSaved
 .sbss          0x000000000030ac20       0x10 /home/janne/ebsdk/ebfw/obj/lx164//lib.a(fileio.o)
                0x000000000030ac2c                errno
 .sbss          0x000000000030ac30       0x28 /home/janne/ebsdk/ebfw/obj/lx164//lib.a(fatdrv.o)
 .sbss          0x000000000030ac58        0x4 /home/janne/ebsdk/ebfw/obj/lx164//lib.a(floppy.o)
 .sbss          0x000000000030ac5c        0x4 /home/janne/ebsdk/ebfw/obj/lx164//lib.a(smc.o)

.bss            0x000000000030ac60      0x518
 *(.bss)
 .bss           0x000000000030ac60        0x0 /home/janne/ebsdk/ebfw/obj/lx164//cstartup.o
 .bss           0x000000000030ac60        0x0 /home/janne/ebsdk/ebfw/obj/lx164/hello.o
 .bss           0x000000000030ac60        0x0 /home/janne/ebsdk/ebfw/obj/lx164//lib.a(setjmp.o)
 .bss           0x000000000030ac60       0xe8 /home/janne/ebsdk/ebfw/obj/lx164//lib.a(initdata.o)
                0x000000000030ac60                sysdata
                0x000000000030acb8                ExitData
 .bss           0x000000000030ad48        0x0 /home/janne/ebsdk/ebfw/obj/lx164//lib.a(printf.o)
 .bss           0x000000000030ad48        0x0 /home/janne/ebsdk/ebfw/obj/lx164//lib.a(string.o)
 .bss           0x000000000030ad48        0x0 /home/janne/ebsdk/ebfw/obj/lx164//lib.a(ctype.o)
 .bss           0x000000000030ad48        0x0 /home/janne/ebsdk/ebfw/obj/lx164//lib.a(ftype.o)
 .bss           0x000000000030ad48        0x0 /home/janne/ebsdk/ebfw/obj/lx164//lib.a(callback.o)
 .bss           0x000000000030ad48        0x0 /home/janne/ebsdk/ebfw/obj/lx164//lib.a(asmstuff.o)
 .bss           0x000000000030ad48       0x30 /home/janne/ebsdk/ebfw/obj/lx164//lib.a(time.o)
 .bss           0x000000000030ad78       0x90 /home/janne/ebsdk/ebfw/obj/lx164//lib.a(fileio.o)
                0x000000000030ad78                LogicalDrives
 .bss           0x000000000030ae08      0x370 /home/janne/ebsdk/ebfw/obj/lx164//lib.a(fatdrv.o)
 .bss           0x000000000030b178        0x0 /home/janne/ebsdk/ebfw/obj/lx164//lib.a(floppy.o)
 .bss           0x000000000030b178        0x0 /home/janne/ebsdk/ebfw/obj/lx164//lib.a(lx164_io.o)
 .bss           0x000000000030b178        0x0 /home/janne/ebsdk/ebfw/obj/lx164//lib.a(smc.o)
 .bss           0x000000000030b178        0x0 /usr/alpha-linux-gnu/lib/libc.a(strchr.o)
 .bss           0x000000000030b178        0x0 /usr/alpha-linux-gnu/lib/libc.a(strncat.o)
 .bss           0x000000000030b178        0x0 /usr/alpha-linux-gnu/lib/libc.a(strncmp.o)
 .bss           0x000000000030b178        0x0 /usr/alpha-linux-gnu/lib/libc.a(strncpy.o)
 .bss           0x000000000030b178        0x0 /usr/alpha-linux-gnu/lib/libc.a(strrchr.o)
 .bss           0x000000000030b178        0x0 /usr/alpha-linux-gnu/lib/libc.a(stxncpy.o)
 .bss           0x000000000030b178        0x0 /usr/alpha-linux-gnu/lib/libc.a(divlu.o)
 .bss           0x000000000030b178        0x0 /usr/alpha-linux-gnu/lib/libc.a(divq.o)
 .bss           0x000000000030b178        0x0 /usr/alpha-linux-gnu/lib/libc.a(divqu.o)
 .bss           0x000000000030b178        0x0 /usr/alpha-linux-gnu/lib/libc.a(reml.o)
 .bss           0x000000000030b178        0x0 /usr/alpha-linux-gnu/lib/libc.a(remlu.o)
 .bss           0x000000000030b178        0x0 /usr/alpha-linux-gnu/lib/libc.a(remq.o)
 .bss           0x000000000030b178        0x0 /usr/alpha-linux-gnu/lib/libc.a(remqu.o)
 *(COMMON)
                0x000000000030b178                . = ALIGN (0x8)
                0x000000000030b178                . = SEGMENT_START ("ldata-segment", .)
                0x000000000030b178                . = ALIGN (0x8)
                0x000000000030b178                _end = .
                [!provide]                        PROVIDE (end = .)

.comment        0x0000000000000000       0x1f
 *(.comment)
 .comment       0x0000000000000000       0x1f /home/janne/ebsdk/ebfw/obj/lx164/hello.o
                                         0x20 (size before relaxing)
 .comment       0x000000000000001f       0x20 /home/janne/ebsdk/ebfw/obj/lx164//lib.a(initdata.o)
 .comment       0x000000000000001f       0x20 /home/janne/ebsdk/ebfw/obj/lx164//lib.a(printf.o)
 .comment       0x000000000000001f       0x20 /home/janne/ebsdk/ebfw/obj/lx164//lib.a(string.o)
 .comment       0x000000000000001f       0x20 /home/janne/ebsdk/ebfw/obj/lx164//lib.a(ctype.o)
 .comment       0x000000000000001f       0x20 /home/janne/ebsdk/ebfw/obj/lx164//lib.a(ftype.o)
 .comment       0x000000000000001f       0x20 /home/janne/ebsdk/ebfw/obj/lx164//lib.a(callback.o)
 .comment       0x000000000000001f       0x20 /home/janne/ebsdk/ebfw/obj/lx164//lib.a(time.o)
 .comment       0x000000000000001f       0x20 /home/janne/ebsdk/ebfw/obj/lx164//lib.a(fileio.o)
 .comment       0x000000000000001f       0x20 /home/janne/ebsdk/ebfw/obj/lx164//lib.a(fatdrv.o)
 .comment       0x000000000000001f       0x20 /home/janne/ebsdk/ebfw/obj/lx164//lib.a(floppy.o)
 .comment       0x000000000000001f       0x20 /home/janne/ebsdk/ebfw/obj/lx164//lib.a(lx164_io.o)
 .comment       0x000000000000001f       0x20 /home/janne/ebsdk/ebfw/obj/lx164//lib.a(smc.o)

/DISCARD/
 *(.note.GNU-stack)
 *(.gnu_debuglink)
LOAD /home/janne/ebsdk/ebfw/obj/lx164/hello.o
LOAD /home/janne/ebsdk/ebfw/obj/lx164//lib.a
LOAD /home/janne/ebsdk/ebfw/obj/lx164//stubs.a
LOAD /usr/alpha-linux-gnu/lib/libc.a
OUTPUT(/home/janne/ebsdk/ebfw/obj/lx164/hello.elf elf64-alpha)
